target datalayout = "e-m:e-p270:32:32-p271:32:32-p272:64:64-i64:64-i128:128-f80:128-n8:16:32:64-S128"
target triple = "x86_64-pc-linux-gnu"

%struct.CVodeMemRec = type { ptr, double, ptr, ptr, i32, i32, double, double, ptr, i32, i32, ptr, ptr, i32, i32, ptr, i32, i32, double, double, ptr, i32, i32, i32, i32, ptr, ptr, ptr, i32, i32, ptr, ptr, ptr, i32, double, i32, i32, double, ptr, ptr, ptr, i32, ptr, ptr, i32, i32, i32, double, ptr, ptr, ptr, [13 x ptr], ptr, ptr, ptr, ptr, ptr, ptr, ptr, ptr, ptr, [13 x ptr], ptr, ptr, ptr, ptr, [13 x ptr], ptr, ptr, ptr, ptr, ptr, i32, [13 x ptr], ptr, ptr, ptr, ptr, ptr, i32, i32, double, i32, i32, i32, i32, i32, double, double, double, double, double, double, double, double, [14 x double], [6 x double], [13 x double], double, double, double, double, double, double, double, double, i32, double, double, i32, double, double, ptr, i32, i64, i32, i32, i32, double, double, double, double, double, double, double, double, double, double, double, double, i64, i32, i64, i64, i64, i64, i64, i64, i64, i64, i64, ptr, i64, i64, ptr, i64, i64, ptr, i64, i64, i64, i64, i64, i64, i32, double, double, double, i64, i64, i64, i64, i64, i64, ptr, i32, ptr, i32, ptr, i32, ptr, i32, i32, i64, i32, ptr, i32, ptr, ptr, ptr, ptr, ptr, ptr, i32, i32, ptr, ptr, ptr, ptr, ptr, i64, double, i32, i32, i64, double, double, double, i32, i32, double, i32, i32, i32, i32, i32, i32, i32, i32, i32, i32, i32, i32, i32, i32, i32, i32, ptr, i64, i32, [6 x [4 x double]], i32, i64, ptr, i32, ptr, ptr, double, double, double, ptr, ptr, ptr, double, double, i32, i32, i64, ptr, i32, ptr, i32, i32, [13 x double], ptr, ptr, ptr, i32, ptr, i32 }
%struct._generic_N_Vector = type { ptr, ptr, ptr }
%struct._generic_N_Vector_Ops = type { ptr, ptr, ptr, ptr, ptr, ptr, ptr, ptr, ptr, ptr, ptr, ptr, ptr, ptr, ptr, ptr, ptr, ptr, ptr, ptr, ptr, ptr, ptr, ptr, ptr, ptr, ptr, ptr, ptr, ptr, ptr, ptr, ptr, ptr, ptr, ptr, ptr, ptr, ptr, ptr, ptr, ptr, ptr, ptr, ptr, ptr, ptr, ptr, ptr, ptr, ptr, ptr, ptr, ptr, ptr, ptr }

@.str = private unnamed_addr constant [115 x i8] c"generated/home/dtcxzyw/WorkSpace/Projects/compilers/llvm-opt-benchmark/bench/sundials/sundials/src/cvodes/cvodes.c\00", align 1
@.str.4 = private unnamed_addr constant [26 x i8] c"cvode_mem = NULL illegal.\00", align 1
@.str.13 = private unnamed_addr constant [37 x i8] c"Missing N_VMin routine from N_Vector\00", align 1
@.str.23 = private unnamed_addr constant [44 x i8] c"Forward sensitivity analysis not activated.\00", align 1
@.str.25 = private unnamed_addr constant [21 x i8] c"reltolS < 0 illegal.\00", align 1
@.str.26 = private unnamed_addr constant [24 x i8] c"abstolS = NULL illegal.\00", align 1
@.str.27 = private unnamed_addr constant [45 x i8] c"abstolS has negative component(s) (illegal).\00", align 1
@__func__.CVodeSensSVtolerances = private unnamed_addr constant [22 x i8] c"CVodeSensSVtolerances\00", align 1

; Function Attrs: nounwind uwtable
define i32 @CVodeSensSVtolerances(ptr noundef %0, double noundef %1, ptr noundef %2) #0 {
  %4 = alloca i32, align 4
  %5 = alloca ptr, align 8
  %6 = alloca double, align 8
  %7 = alloca ptr, align 8
  %8 = alloca ptr, align 8
  %9 = alloca i32, align 4
  %10 = alloca i32, align 4
  %11 = alloca ptr, align 8
  %12 = alloca i32, align 4
  store ptr %0, ptr %5, align 8, !tbaa !153
  store double %1, ptr %6, align 8, !tbaa !150
  store ptr %2, ptr %7, align 8, !tbaa !152
  call void @llvm.lifetime.start.p0(i64 8, ptr %8) #10
  call void @llvm.lifetime.start.p0(i64 4, ptr %9) #10
  call void @llvm.lifetime.start.p0(i64 4, ptr %10) #10
  call void @llvm.lifetime.start.p0(i64 8, ptr %11) #10
  %13 = load ptr, ptr %5, align 8, !tbaa !153
  %14 = icmp eq ptr %13, null
  br i1 %14, label %15, label %16

15:                                               ; preds = %3
  call void (ptr, i32, i32, ptr, ptr, ptr, ...) @cvProcessError(ptr noundef null, i32 noundef -21, i32 noundef 2146, ptr noundef @__func__.CVodeSensSVtolerances, ptr noundef @.str, ptr noundef @.str.4)
  store i32 -21, ptr %4, align 4
  store i32 1, ptr %12, align 4
  br label %183

16:                                               ; preds = %3
  %17 = load ptr, ptr %5, align 8, !tbaa !153
  store ptr %17, ptr %8, align 8, !tbaa !10
  %18 = load ptr, ptr %8, align 8, !tbaa !10
  %19 = getelementptr inbounds nuw %struct.CVodeMemRec, ptr %18, i32 0, i32 213
  %20 = load i32, ptr %19, align 8, !tbaa !119
  %21 = icmp eq i32 %20, 0
  br i1 %21, label %22, label %24

22:                                               ; preds = %16
  %23 = load ptr, ptr %8, align 8, !tbaa !10
  call void (ptr, i32, i32, ptr, ptr, ptr, ...) @cvProcessError(ptr noundef %23, i32 noundef -40, i32 noundef 2155, ptr noundef @__func__.CVodeSensSVtolerances, ptr noundef @.str, ptr noundef @.str.23)
  store i32 -40, ptr %4, align 4
  store i32 1, ptr %12, align 4
  br label %183

24:                                               ; preds = %16
  %25 = load double, ptr %6, align 8, !tbaa !150
  %26 = fcmp olt double %25, 0.000000e+00
  br i1 %26, label %27, label %29

27:                                               ; preds = %24
  %28 = load ptr, ptr %8, align 8, !tbaa !10
  call void (ptr, i32, i32, ptr, ptr, ptr, ...) @cvProcessError(ptr noundef %28, i32 noundef -22, i32 noundef 2164, ptr noundef @__func__.CVodeSensSVtolerances, ptr noundef @.str, ptr noundef @.str.25)
  store i32 -22, ptr %4, align 4
  store i32 1, ptr %12, align 4
  br label %183

29:                                               ; preds = %24
  %30 = load ptr, ptr %7, align 8, !tbaa !152
  %31 = icmp eq ptr %30, null
  br i1 %31, label %32, label %34

32:                                               ; preds = %29
  %33 = load ptr, ptr %8, align 8, !tbaa !10
  call void (ptr, i32, i32, ptr, ptr, ptr, ...) @cvProcessError(ptr noundef %33, i32 noundef -22, i32 noundef 2171, ptr noundef @__func__.CVodeSensSVtolerances, ptr noundef @.str, ptr noundef @.str.26)
  store i32 -22, ptr %4, align 4
  store i32 1, ptr %12, align 4
  br label %183

34:                                               ; preds = %29
  %35 = load ptr, ptr %8, align 8, !tbaa !10
  %36 = getelementptr inbounds nuw %struct.CVodeMemRec, ptr %35, i32 0, i32 55
  %37 = load ptr, ptr %36, align 8, !tbaa !211
  %38 = getelementptr inbounds nuw %struct._generic_N_Vector, ptr %37, i32 0, i32 1
  %39 = load ptr, ptr %38, align 8, !tbaa !157
  %40 = getelementptr inbounds nuw %struct._generic_N_Vector_Ops, ptr %39, i32 0, i32 23
  %41 = load ptr, ptr %40, align 8, !tbaa !218
  %42 = icmp eq ptr %41, null
  br i1 %42, label %43, label %45

43:                                               ; preds = %34
  %44 = load ptr, ptr %8, align 8, !tbaa !10
  call void (ptr, i32, i32, ptr, ptr, ptr, ...) @cvProcessError(ptr noundef %44, i32 noundef -22, i32 noundef 2178, ptr noundef @__func__.CVodeSensSVtolerances, ptr noundef @.str, ptr noundef @.str.13)
  store i32 -22, ptr %4, align 4
  store i32 1, ptr %12, align 4
  br label %183

45:                                               ; preds = %34
  %46 = load ptr, ptr %8, align 8, !tbaa !10
  %47 = getelementptr inbounds nuw %struct.CVodeMemRec, ptr %46, i32 0, i32 23
  %48 = load i32, ptr %47, align 8, !tbaa !230
  %49 = sext i32 %48 to i64
  %50 = mul i64 %49, 8
  %51 = call noalias ptr @malloc(i64 noundef %50) #11
  store ptr %51, ptr %11, align 8, !tbaa !246
  store i32 0, ptr %9, align 4, !tbaa !3
  br label %52

52:                                               ; preds = %79, %45
  %53 = load i32, ptr %9, align 4, !tbaa !3
  %54 = load ptr, ptr %8, align 8, !tbaa !10
  %55 = getelementptr inbounds nuw %struct.CVodeMemRec, ptr %54, i32 0, i32 23
  %56 = load i32, ptr %55, align 8, !tbaa !230
  %57 = icmp slt i32 %53, %56
  br i1 %57, label %58, label %82

58:                                               ; preds = %52
  %59 = load ptr, ptr %7, align 8, !tbaa !152
  %60 = load i32, ptr %9, align 4, !tbaa !3
  %61 = sext i32 %60 to i64
  %62 = getelementptr inbounds ptr, ptr %59, i64 %61
  %63 = load ptr, ptr %62, align 8, !tbaa !151
  %64 = call double @N_VMin(ptr noundef %63)
  %65 = load ptr, ptr %11, align 8, !tbaa !246
  %66 = load i32, ptr %9, align 4, !tbaa !3
  %67 = sext i32 %66 to i64
  %68 = getelementptr inbounds double, ptr %65, i64 %67
  store double %64, ptr %68, align 8, !tbaa !150
  %69 = load ptr, ptr %11, align 8, !tbaa !246
  %70 = load i32, ptr %9, align 4, !tbaa !3
  %71 = sext i32 %70 to i64
  %72 = getelementptr inbounds double, ptr %69, i64 %71
  %73 = load double, ptr %72, align 8, !tbaa !150
  %74 = fcmp olt double %73, 0.000000e+00
  br i1 %74, label %75, label %78

75:                                               ; preds = %58
  %76 = load ptr, ptr %8, align 8, !tbaa !10
  call void (ptr, i32, i32, ptr, ptr, ptr, ...) @cvProcessError(ptr noundef %76, i32 noundef -22, i32 noundef 2188, ptr noundef @__func__.CVodeSensSVtolerances, ptr noundef @.str, ptr noundef @.str.27)
  %77 = load ptr, ptr %11, align 8, !tbaa !246
  call void @free(ptr noundef %77) #10
  store i32 -22, ptr %4, align 4
  store i32 1, ptr %12, align 4
  br label %183

78:                                               ; preds = %58
  br label %79

79:                                               ; preds = %78
  %80 = load i32, ptr %9, align 4, !tbaa !3
  %81 = add nsw i32 %80, 1
  store i32 %81, ptr %9, align 4, !tbaa !3
  br label %52

82:                                               ; preds = %52
  %83 = load ptr, ptr %8, align 8, !tbaa !10
  %84 = getelementptr inbounds nuw %struct.CVodeMemRec, ptr %83, i32 0, i32 36
  store i32 2, ptr %84, align 4, !tbaa !96
  %85 = load double, ptr %6, align 8, !tbaa !150
  %86 = load ptr, ptr %8, align 8, !tbaa !10
  %87 = getelementptr inbounds nuw %struct.CVodeMemRec, ptr %86, i32 0, i32 37
  store double %85, ptr %87, align 8, !tbaa !247
  %88 = load ptr, ptr %8, align 8, !tbaa !10
  %89 = getelementptr inbounds nuw %struct.CVodeMemRec, ptr %88, i32 0, i32 211
  %90 = load i32, ptr %89, align 8, !tbaa !117
  %91 = icmp ne i32 %90, 0
  br i1 %91, label %136, label %92

92:                                               ; preds = %82
  %93 = load ptr, ptr %8, align 8, !tbaa !10
  %94 = getelementptr inbounds nuw %struct.CVodeMemRec, ptr %93, i32 0, i32 23
  %95 = load i32, ptr %94, align 8, !tbaa !230
  %96 = load ptr, ptr %8, align 8, !tbaa !10
  %97 = getelementptr inbounds nuw %struct.CVodeMemRec, ptr %96, i32 0, i32 55
  %98 = load ptr, ptr %97, align 8, !tbaa !211
  %99 = call ptr @N_VCloneVectorArray(i32 noundef %95, ptr noundef %98)
  %100 = load ptr, ptr %8, align 8, !tbaa !10
  %101 = getelementptr inbounds nuw %struct.CVodeMemRec, ptr %100, i32 0, i32 39
  store ptr %99, ptr %101, align 8, !tbaa !244
  %102 = load ptr, ptr %8, align 8, !tbaa !10
  %103 = getelementptr inbounds nuw %struct.CVodeMemRec, ptr %102, i32 0, i32 23
  %104 = load i32, ptr %103, align 8, !tbaa !230
  %105 = sext i32 %104 to i64
  %106 = mul i64 %105, 4
  %107 = call noalias ptr @malloc(i64 noundef %106) #11
  %108 = load ptr, ptr %8, align 8, !tbaa !10
  %109 = getelementptr inbounds nuw %struct.CVodeMemRec, ptr %108, i32 0, i32 40
  store ptr %107, ptr %109, align 8, !tbaa !97
  %110 = load ptr, ptr %8, align 8, !tbaa !10
  %111 = getelementptr inbounds nuw %struct.CVodeMemRec, ptr %110, i32 0, i32 23
  %112 = load i32, ptr %111, align 8, !tbaa !230
  %113 = sext i32 %112 to i64
  %114 = load ptr, ptr %8, align 8, !tbaa !10
  %115 = getelementptr inbounds nuw %struct.CVodeMemRec, ptr %114, i32 0, i32 158
  %116 = load i64, ptr %115, align 8, !tbaa !162
  %117 = mul nsw i64 %113, %116
  %118 = load ptr, ptr %8, align 8, !tbaa !10
  %119 = getelementptr inbounds nuw %struct.CVodeMemRec, ptr %118, i32 0, i32 162
  %120 = load i64, ptr %119, align 8, !tbaa !110
  %121 = add nsw i64 %120, %117
  store i64 %121, ptr %119, align 8, !tbaa !110
  %122 = load ptr, ptr %8, align 8, !tbaa !10
  %123 = getelementptr inbounds nuw %struct.CVodeMemRec, ptr %122, i32 0, i32 23
  %124 = load i32, ptr %123, align 8, !tbaa !230
  %125 = sext i32 %124 to i64
  %126 = load ptr, ptr %8, align 8, !tbaa !10
  %127 = getelementptr inbounds nuw %struct.CVodeMemRec, ptr %126, i32 0, i32 159
  %128 = load i64, ptr %127, align 8, !tbaa !163
  %129 = mul nsw i64 %125, %128
  %130 = load ptr, ptr %8, align 8, !tbaa !10
  %131 = getelementptr inbounds nuw %struct.CVodeMemRec, ptr %130, i32 0, i32 163
  %132 = load i64, ptr %131, align 8, !tbaa !111
  %133 = add nsw i64 %132, %129
  store i64 %133, ptr %131, align 8, !tbaa !111
  %134 = load ptr, ptr %8, align 8, !tbaa !10
  %135 = getelementptr inbounds nuw %struct.CVodeMemRec, ptr %134, i32 0, i32 211
  store i32 1, ptr %135, align 8, !tbaa !117
  br label %136

136:                                              ; preds = %92, %82
  store i32 0, ptr %9, align 4, !tbaa !3
  br label %137

137:                                              ; preds = %163, %136
  %138 = load i32, ptr %9, align 4, !tbaa !3
  %139 = load ptr, ptr %8, align 8, !tbaa !10
  %140 = getelementptr inbounds nuw %struct.CVodeMemRec, ptr %139, i32 0, i32 23
  %141 = load i32, ptr %140, align 8, !tbaa !230
  %142 = icmp slt i32 %138, %141
  br i1 %142, label %143, label %166

143:                                              ; preds = %137
  %144 = load ptr, ptr %8, align 8, !tbaa !10
  %145 = getelementptr inbounds nuw %struct.CVodeMemRec, ptr %144, i32 0, i32 244
  %146 = load ptr, ptr %145, align 8, !tbaa !164
  %147 = load i32, ptr %9, align 4, !tbaa !3
  %148 = sext i32 %147 to i64
  %149 = getelementptr inbounds double, ptr %146, i64 %148
  store double 1.000000e+00, ptr %149, align 8, !tbaa !150
  %150 = load ptr, ptr %11, align 8, !tbaa !246
  %151 = load i32, ptr %9, align 4, !tbaa !3
  %152 = sext i32 %151 to i64
  %153 = getelementptr inbounds double, ptr %150, i64 %152
  %154 = load double, ptr %153, align 8, !tbaa !150
  %155 = fcmp oeq double %154, 0.000000e+00
  %156 = zext i1 %155 to i32
  %157 = load ptr, ptr %8, align 8, !tbaa !10
  %158 = getelementptr inbounds nuw %struct.CVodeMemRec, ptr %157, i32 0, i32 40
  %159 = load ptr, ptr %158, align 8, !tbaa !97
  %160 = load i32, ptr %9, align 4, !tbaa !3
  %161 = sext i32 %160 to i64
  %162 = getelementptr inbounds i32, ptr %159, i64 %161
  store i32 %156, ptr %162, align 4, !tbaa !3
  br label %163

163:                                              ; preds = %143
  %164 = load i32, ptr %9, align 4, !tbaa !3
  %165 = add nsw i32 %164, 1
  store i32 %165, ptr %9, align 4, !tbaa !3
  br label %137

166:                                              ; preds = %137
  %167 = load ptr, ptr %11, align 8, !tbaa !246
  call void @free(ptr noundef %167) #10
  %168 = load ptr, ptr %8, align 8, !tbaa !10
  %169 = getelementptr inbounds nuw %struct.CVodeMemRec, ptr %168, i32 0, i32 23
  %170 = load i32, ptr %169, align 8, !tbaa !230
  %171 = load ptr, ptr %8, align 8, !tbaa !10
  %172 = getelementptr inbounds nuw %struct.CVodeMemRec, ptr %171, i32 0, i32 244
  %173 = load ptr, ptr %172, align 8, !tbaa !164
  %174 = load ptr, ptr %7, align 8, !tbaa !152
  %175 = load ptr, ptr %8, align 8, !tbaa !10
  %176 = getelementptr inbounds nuw %struct.CVodeMemRec, ptr %175, i32 0, i32 39
  %177 = load ptr, ptr %176, align 8, !tbaa !244
  %178 = call i32 @N_VScaleVectorArray(i32 noundef %170, ptr noundef %173, ptr noundef %174, ptr noundef %177)
  store i32 %178, ptr %10, align 4, !tbaa !3
  %179 = load i32, ptr %10, align 4, !tbaa !3
  %180 = icmp ne i32 %179, 0
  br i1 %180, label %181, label %182

181:                                              ; preds = %166
  store i32 -28, ptr %4, align 4
  store i32 1, ptr %12, align 4
  br label %183

182:                                              ; preds = %166
  store i32 0, ptr %4, align 4
  store i32 1, ptr %12, align 4
  br label %183

183:                                              ; preds = %182, %181, %75, %43, %32, %27, %22, %15
  call void @llvm.lifetime.end.p0(i64 8, ptr %11) #10
  call void @llvm.lifetime.end.p0(i64 4, ptr %10) #10
  call void @llvm.lifetime.end.p0(i64 4, ptr %9) #10
  call void @llvm.lifetime.end.p0(i64 8, ptr %8) #10
  %184 = load i32, ptr %4, align 4
  ret i32 %184
}