; Function Attrs: nounwind uwtable
define range(i32 -40, 1) i32 @CVodeSensSVtolerances(ptr noundef captures(address_is_null) %0, double noundef %1, ptr noundef %2) local_unnamed_addr #0 {
  %4 = icmp eq ptr %0, null
  br i1 %4, label %5, label %6

5:                                                ; preds = %3
  tail call void (ptr, i32, i32, ptr, ptr, ptr, ...) @cvProcessError(ptr noundef null, i32 noundef -21, i32 noundef 2146, ptr noundef nonnull @__func__.CVodeSensSVtolerances, ptr noundef nonnull @.str, ptr noundef nonnull @.str.4)
  br label %88

6:                                                ; preds = %3
  %7 = getelementptr inbounds nuw i8, ptr %0, i64 2144
  %8 = load i32, ptr %7, align 8, !tbaa !155
  %9 = icmp eq i32 %8, 0
  br i1 %9, label %10, label %11

10:                                               ; preds = %6
  tail call void (ptr, i32, i32, ptr, ptr, ptr, ...) @cvProcessError(ptr noundef nonnull %0, i32 noundef -40, i32 noundef 2155, ptr noundef nonnull @__func__.CVodeSensSVtolerances, ptr noundef nonnull @.str, ptr noundef nonnull @.str.23)
  br label %88

11:                                               ; preds = %6
  %12 = fcmp olt double %1, 0.000000e+00
  br i1 %12, label %13, label %14

13:                                               ; preds = %11
  tail call void (ptr, i32, i32, ptr, ptr, ptr, ...) @cvProcessError(ptr noundef nonnull %0, i32 noundef -22, i32 noundef 2164, ptr noundef nonnull @__func__.CVodeSensSVtolerances, ptr noundef nonnull @.str, ptr noundef nonnull @.str.25)
  br label %88

14:                                               ; preds = %11
  %15 = icmp eq ptr %2, null
  br i1 %15, label %16, label %17

16:                                               ; preds = %14
  tail call void (ptr, i32, i32, ptr, ptr, ptr, ...) @cvProcessError(ptr noundef nonnull %0, i32 noundef -22, i32 noundef 2171, ptr noundef nonnull @__func__.CVodeSensSVtolerances, ptr noundef nonnull @.str, ptr noundef nonnull @.str.26)
  br label %88

17:                                               ; preds = %14
  %18 = getelementptr inbounds nuw i8, ptr %0, i64 464
  %19 = load ptr, ptr %18, align 8, !tbaa !98
  %20 = getelementptr inbounds nuw i8, ptr %19, i64 8
  %21 = load ptr, ptr %20, align 8, !tbaa !77
  %22 = getelementptr inbounds nuw i8, ptr %21, i64 184
  %23 = load ptr, ptr %22, align 8, !tbaa !138
  %24 = icmp eq ptr %23, null
  br i1 %24, label %25, label %26

25:                                               ; preds = %17
  tail call void (ptr, i32, i32, ptr, ptr, ptr, ...) @cvProcessError(ptr noundef nonnull %0, i32 noundef -22, i32 noundef 2178, ptr noundef nonnull @__func__.CVodeSensSVtolerances, ptr noundef nonnull @.str, ptr noundef nonnull @.str.13)
  br label %88

26:                                               ; preds = %17
  %27 = getelementptr inbounds nuw i8, ptr %0, i64 144
  %28 = load i32, ptr %27, align 8, !tbaa !156
  %29 = sext i32 %28 to i64
  %30 = shl nsw i64 %29, 3
  %31 = tail call noalias ptr @malloc(i64 noundef %30) #14
  %32 = icmp sgt i32 %28, 0
  br i1 %32, label %.lr.ph, label %._crit_edge

33:                                               ; preds = %.lr.ph
  %indvars.iv.next = add nuw nsw i64 %indvars.iv, 1
  %34 = load i32, ptr %27, align 8, !tbaa !156
  %35 = sext i32 %34 to i64
  %36 = icmp slt i64 %indvars.iv.next, %35
  br i1 %36, label %.lr.ph, label %._crit_edge

.lr.ph:                                           ; preds = %26, %33
  %indvars.iv = phi i64 [ %indvars.iv.next, %33 ], [ 0, %26 ]
  %37 = getelementptr inbounds nuw ptr, ptr %2, i64 %indvars.iv
  %38 = load ptr, ptr %37, align 8, !tbaa !65
  %39 = tail call double @N_VMin(ptr noundef %38) #13
  %40 = getelementptr inbounds nuw double, ptr %31, i64 %indvars.iv
  store double %39, ptr %40, align 8, !tbaa !69
  %41 = fcmp olt double %39, 0.000000e+00
  br i1 %41, label %42, label %33

42:                                               ; preds = %.lr.ph
  tail call void (ptr, i32, i32, ptr, ptr, ptr, ...) @cvProcessError(ptr noundef nonnull %0, i32 noundef -22, i32 noundef 2188, ptr noundef nonnull @__func__.CVodeSensSVtolerances, ptr noundef nonnull @.str, ptr noundef nonnull @.str.27)
  tail call void @free(ptr noundef nonnull %31) #13
  br label %88

._crit_edge:                                      ; preds = %33, %26
  %.lcssa58 = phi i32 [ %28, %26 ], [ %34, %33 ]
  %43 = getelementptr inbounds nuw i8, ptr %0, i64 228
  store i32 2, ptr %43, align 4, !tbaa !186
  %44 = getelementptr inbounds nuw i8, ptr %0, i64 232
  store double %1, ptr %44, align 8, !tbaa !187
  %45 = getelementptr inbounds nuw i8, ptr %0, i64 2136
  %46 = load i32, ptr %45, align 8, !tbaa !174
  %.not = icmp eq i32 %46, 0
  br i1 %.not, label %47, label %68

47:                                               ; preds = %._crit_edge
  %48 = load ptr, ptr %18, align 8, !tbaa !98
  %49 = tail call ptr @N_VCloneVectorArray(i32 noundef %.lcssa58, ptr noundef %48) #13
  %50 = getelementptr inbounds nuw i8, ptr %0, i64 248
  store ptr %49, ptr %50, align 8, !tbaa !175
  %51 = load i32, ptr %27, align 8, !tbaa !156
  %52 = sext i32 %51 to i64
  %53 = shl nsw i64 %52, 2
  %54 = tail call noalias ptr @malloc(i64 noundef %53) #14
  %55 = getelementptr inbounds nuw i8, ptr %0, i64 256
  store ptr %54, ptr %55, align 8, !tbaa !188
  %56 = getelementptr inbounds nuw i8, ptr %0, i64 1784
  %57 = load i64, ptr %56, align 8, !tbaa !95
  %58 = mul nsw i64 %57, %52
  %59 = getelementptr inbounds nuw i8, ptr %0, i64 1816
  %60 = load i64, ptr %59, align 8, !tbaa !52
  %61 = add nsw i64 %60, %58
  store i64 %61, ptr %59, align 8, !tbaa !52
  %62 = getelementptr inbounds nuw i8, ptr %0, i64 1792
  %63 = load i64, ptr %62, align 8, !tbaa !96
  %64 = mul nsw i64 %63, %52
  %65 = getelementptr inbounds nuw i8, ptr %0, i64 1824
  %66 = load i64, ptr %65, align 8, !tbaa !53
  %67 = add nsw i64 %66, %64
  store i64 %67, ptr %65, align 8, !tbaa !53
  store i32 1, ptr %45, align 8, !tbaa !174
  br label %68

68:                                               ; preds = %47, %._crit_edge
  %69 = phi i32 [ %51, %47 ], [ %.lcssa58, %._crit_edge ]
  %70 = icmp sgt i32 %69, 0
  %71 = getelementptr inbounds nuw i8, ptr %0, i64 2640
  %72 = load ptr, ptr %71, align 8, !tbaa !103
  br i1 %70, label %.lr.ph63, label %._crit_edge64

.lr.ph63:                                         ; preds = %68
  %73 = getelementptr inbounds nuw i8, ptr %0, i64 256
  %74 = load ptr, ptr %73, align 8, !tbaa !188
  br label %75

75:                                               ; preds = %.lr.ph63, %75
  %indvars.iv69 = phi i64 [ 0, %.lr.ph63 ], [ %indvars.iv.next70, %75 ]
  %76 = getelementptr inbounds nuw double, ptr %72, i64 %indvars.iv69
  store double 1.000000e+00, ptr %76, align 8, !tbaa !69
  %77 = getelementptr inbounds nuw double, ptr %31, i64 %indvars.iv69
  %78 = load double, ptr %77, align 8, !tbaa !69
  %79 = fcmp oeq double %78, 0.000000e+00
  %80 = zext i1 %79 to i32
  %81 = getelementptr inbounds nuw i32, ptr %74, i64 %indvars.iv69
  store i32 %80, ptr %81, align 4, !tbaa !67
  %indvars.iv.next70 = add nuw nsw i64 %indvars.iv69, 1
  %82 = load i32, ptr %27, align 8, !tbaa !156
  %83 = sext i32 %82 to i64
  %84 = icmp slt i64 %indvars.iv.next70, %83
  br i1 %84, label %75, label %._crit_edge64

._crit_edge64:                                    ; preds = %75, %68
  %.lcssa = phi i32 [ %69, %68 ], [ %82, %75 ]
  tail call void @free(ptr noundef %31) #13
  %85 = getelementptr inbounds nuw i8, ptr %0, i64 248
  %86 = load ptr, ptr %85, align 8, !tbaa !175
  %87 = tail call i32 @N_VScaleVectorArray(i32 noundef %.lcssa, ptr noundef %72, ptr noundef nonnull %2, ptr noundef %86) #13
  %.not57 = icmp eq i32 %87, 0
  %. = select i1 %.not57, i32 0, i32 -28
  br label %88

88:                                               ; preds = %._crit_edge64, %42, %25, %16, %13, %10, %5
  %.0 = phi i32 [ -21, %5 ], [ -40, %10 ], [ -22, %13 ], [ -22, %16 ], [ -22, %25 ], [ -22, %42 ], [ %., %._crit_edge64 ]
  ret i32 %.0
}